#include <math.h>
#include <stdio.h>
#include <stdlib.h>
#include <string.h>

int main()
{
 int n,y,m=0,q;
 scanf("%d",&n);
 int i;
 for(i=1;i<=n;i++){
  if(i%7==0){
   continue;
   }else{
   q=i;
   while(q>0){
   y=(q%10);
   if(y==7){
    break;
    }
    if(q<10){
    m+=i*i;
    }
    q=q/10;
    
   }
  }
 }
 printf("%d",m);
 return 0;
}