; ModuleID = '30/2978.c'
source_filename = "30/2978.c"
target datalayout = "e-m:e-p270:32:32-p271:32:32-p272:64:64-i64:64-f80:128-n8:16:32:64-S128"
target triple = "x86_64-pc-linux-gnu"

@.str = private unnamed_addr constant [3 x i8] c"%d\00", align 1

; Function Attrs: noinline nounwind uwtable
define dso_local i32 @main() #0 {
  %1 = alloca i32, align 4
  %2 = alloca i32, align 4
  %3 = alloca i32, align 4
  %4 = alloca i32, align 4
  %5 = alloca i32, align 4
  %6 = alloca i32, align 4
  store i32 0, i32* %1, align 4
  store i32 0, i32* %4, align 4
  %7 = call i32 (i8*, ...) @__isoc99_scanf(i8* getelementptr inbounds ([3 x i8], [3 x i8]* @.str, i64 0, i64 0), i32* %2)
  store i32 1, i32* %6, align 4
  br label %8

8:                                                ; preds = %42, %0
  %9 = load i32, i32* %6, align 4
  %10 = load i32, i32* %2, align 4
  %11 = icmp sle i32 %9, %10
  br i1 %11, label %12, label %45

12:                                               ; preds = %8
  %13 = load i32, i32* %6, align 4
  %14 = srem i32 %13, 7
  %15 = icmp eq i32 %14, 0
  br i1 %15, label %16, label %17

16:                                               ; preds = %12
  br label %42

17:                                               ; preds = %12
  %18 = load i32, i32* %6, align 4
  store i32 %18, i32* %5, align 4
  br label %19

19:                                               ; preds = %37, %17
  %20 = load i32, i32* %5, align 4
  %21 = icmp sgt i32 %20, 0
  br i1 %21, label %22, label %40

22:                                               ; preds = %19
  %23 = load i32, i32* %5, align 4
  %24 = srem i32 %23, 10
  store i32 %24, i32* %3, align 4
  %25 = load i32, i32* %3, align 4
  %26 = icmp eq i32 %25, 7
  br i1 %26, label %27, label %28

27:                                               ; preds = %22
  br label %40

28:                                               ; preds = %22
  %29 = load i32, i32* %5, align 4
  %30 = icmp slt i32 %29, 10
  br i1 %30, label %31, label %37

31:                                               ; preds = %28
  %32 = load i32, i32* %6, align 4
  %33 = load i32, i32* %6, align 4
  %34 = mul nsw i32 %32, %33
  %35 = load i32, i32* %4, align 4
  %36 = add nsw i32 %35, %34
  store i32 %36, i32* %4, align 4
  br label %37

37:                                               ; preds = %31, %28
  %38 = load i32, i32* %5, align 4
  %39 = sdiv i32 %38, 10
  store i32 %39, i32* %5, align 4
  br label %19

40:                                               ; preds = %27, %19
  br label %41

41:                                               ; preds = %40
  br label %42

42:                                               ; preds = %41, %16
  %43 = load i32, i32* %6, align 4
  %44 = add nsw i32 %43, 1
  store i32 %44, i32* %6, align 4
  br label %8

45:                                               ; preds = %8
  %46 = load i32, i32* %4, align 4
  %47 = call i32 (i8*, ...) @printf(i8* getelementptr inbounds ([3 x i8], [3 x i8]* @.str, i64 0, i64 0), i32 %46)
  ret i32 0
}

declare dso_local i32 @__isoc99_scanf(i8*, ...) #1

declare dso_local i32 @printf(i8*, ...) #1


!llvm.module.flags = !{!0}
!llvm.ident = !{!1}

!0 = !{i32 1, !"wchar_size", i32 4}
!1 = !{!"clang version 10.0.0-4ubuntu1 "}
